target datalayout = "e-m:e-p270:32:32-p271:32:32-p272:64:64-i64:64-i128:128-f80:128-n8:16:32:64-S128"
target triple = "x86_64-unknown-linux-gnu"

%struct.QTailQLink = type { ptr, ptr }
%struct.CompareState = type { %struct.Object, ptr, ptr, ptr, ptr, %struct.CharBackend, %struct.CharBackend, %struct.CharBackend, %struct.CharBackend, %struct.SocketReadState, %struct.SocketReadState, %struct.SocketReadState, %struct.SendCo, %struct.SendCo, i8, i64, i32, %struct._GQueue, ptr, ptr, ptr, ptr, ptr, i32, %union.anon.0 }
%struct.Object = type { ptr, ptr, ptr, i32, ptr }
%struct.CharBackend = type { ptr, ptr, ptr, ptr, ptr, ptr, i32, i32 }
%struct.SocketReadState = type { i32, i8, i32, i32, i32, [69632 x i8], ptr }
%struct.SendCo = type { ptr, ptr, ptr, %struct._GQueue, i8, i8, i32 }
%struct._GQueue = type { ptr, ptr, i32 }
%union.anon.0 = type { %struct.QTailQLink }
%struct.SendEntry = type { i32, i32, ptr }

@__const.compare_notify_rs_finalize.msg = private unnamed_addr constant [26 x i8] c"COLO_COMPARE_GET_XEN_INIT\00", align 16
@.str.56 = private unnamed_addr constant [26 x i8] c"COLO_USERSPACE_PROXY_INIT\00", align 1
@.str.57 = private unnamed_addr constant [34 x i8] c"Notify Xen COLO-frame INIT failed\00", align 1
@.str.58 = private unnamed_addr constant [16 x i8] c"COLO_CHECKPOINT\00", align 1
@.str.59 = private unnamed_addr constant [41 x i8] c"COLO compare got unsupported instruction\00", align 1

; Function Attrs: nounwind sspstrong uwtable
define internal i32 @compare_chr_send(ptr noundef %s, ptr noundef %buf, i32 noundef %size, i32 noundef %vnet_hdr_len, i1 noundef zeroext %notify_remote_frame, i1 noundef zeroext %zero_copy) #0 {
entry:
  %retval = alloca i32, align 4
  %s.addr = alloca ptr, align 8
  %buf.addr = alloca ptr, align 8
  %size.addr = alloca i32, align 4
  %vnet_hdr_len.addr = alloca i32, align 4
  %notify_remote_frame.addr = alloca i8, align 1
  %zero_copy.addr = alloca i8, align 1
  %sendco = alloca ptr, align 8
  %entry2 = alloca ptr, align 8
  store ptr %s, ptr %s.addr, align 8
  store ptr %buf, ptr %buf.addr, align 8
  store i32 %size, ptr %size.addr, align 4
  store i32 %vnet_hdr_len, ptr %vnet_hdr_len.addr, align 4
  %frombool = zext i1 %notify_remote_frame to i8
  store i8 %frombool, ptr %notify_remote_frame.addr, align 1
  %frombool1 = zext i1 %zero_copy to i8
  store i8 %frombool1, ptr %zero_copy.addr, align 1
  %0 = load i8, ptr %notify_remote_frame.addr, align 1
  %tobool = trunc i8 %0 to i1
  br i1 %tobool, label %if.then, label %if.else

if.then:                                          ; preds = %entry
  %1 = load ptr, ptr %s.addr, align 8
  %notify_sendco = getelementptr inbounds %struct.CompareState, ptr %1, i32 0, i32 13
  store ptr %notify_sendco, ptr %sendco, align 8
  br label %if.end

if.else:                                          ; preds = %entry
  %2 = load ptr, ptr %s.addr, align 8
  %out_sendco = getelementptr inbounds %struct.CompareState, ptr %2, i32 0, i32 12
  store ptr %out_sendco, ptr %sendco, align 8
  br label %if.end

if.end:                                           ; preds = %if.else, %if.then
  %3 = load i32, ptr %size.addr, align 4
  %tobool3 = icmp ne i32 %3, 0
  br i1 %tobool3, label %if.end5, label %if.then4

if.then4:                                         ; preds = %if.end
  store i32 -1, ptr %retval, align 4
  br label %return

if.end5:                                          ; preds = %if.end
  %call = call noalias ptr @g_slice_alloc(i64 noundef 16) #12
  store ptr %call, ptr %entry2, align 8
  %4 = load i32, ptr %size.addr, align 4
  %5 = load ptr, ptr %entry2, align 8
  %size6 = getelementptr inbounds %struct.SendEntry, ptr %5, i32 0, i32 0
  store i32 %4, ptr %size6, align 8
  %6 = load i32, ptr %vnet_hdr_len.addr, align 4
  %7 = load ptr, ptr %entry2, align 8
  %vnet_hdr_len7 = getelementptr inbounds %struct.SendEntry, ptr %7, i32 0, i32 1
  store i32 %6, ptr %vnet_hdr_len7, align 4
  %8 = load i8, ptr %zero_copy.addr, align 1
  %tobool8 = trunc i8 %8 to i1
  br i1 %tobool8, label %if.then9, label %if.else11

if.then9:                                         ; preds = %if.end5
  %9 = load ptr, ptr %buf.addr, align 8
  %10 = load ptr, ptr %entry2, align 8
  %buf10 = getelementptr inbounds %struct.SendEntry, ptr %10, i32 0, i32 2
  store ptr %9, ptr %buf10, align 8
  br label %if.end16

if.else11:                                        ; preds = %if.end5
  %11 = load i32, ptr %size.addr, align 4
  %conv = zext i32 %11 to i64
  %call12 = call noalias ptr @g_malloc(i64 noundef %conv) #12
  %12 = load ptr, ptr %entry2, align 8
  %buf13 = getelementptr inbounds %struct.SendEntry, ptr %12, i32 0, i32 2
  store ptr %call12, ptr %buf13, align 8
  %13 = load ptr, ptr %entry2, align 8
  %buf14 = getelementptr inbounds %struct.SendEntry, ptr %13, i32 0, i32 2
  %14 = load ptr, ptr %buf14, align 8
  %15 = load ptr, ptr %buf.addr, align 8
  %16 = load i32, ptr %size.addr, align 4
  %conv15 = zext i32 %16 to i64
  call void @llvm.memcpy.p0.p0.i64(ptr align 1 %14, ptr align 1 %15, i64 %conv15, i1 false)
  br label %if.end16

if.end16:                                         ; preds = %if.else11, %if.then9
  %17 = load ptr, ptr %sendco, align 8
  %send_list = getelementptr inbounds %struct.SendCo, ptr %17, i32 0, i32 3
  %18 = load ptr, ptr %entry2, align 8
  call void @g_queue_push_tail(ptr noundef %send_list, ptr noundef %18)
  %19 = load ptr, ptr %sendco, align 8
  %done = getelementptr inbounds %struct.SendCo, ptr %19, i32 0, i32 5
  %20 = load i8, ptr %done, align 1
  %tobool17 = trunc i8 %20 to i1
  br i1 %tobool17, label %if.then18, label %if.end26

if.then18:                                        ; preds = %if.end16
  %21 = load ptr, ptr %sendco, align 8
  %call19 = call ptr @qemu_coroutine_create(ptr noundef @_compare_chr_send, ptr noundef %21)
  %22 = load ptr, ptr %sendco, align 8
  %co = getelementptr inbounds %struct.SendCo, ptr %22, i32 0, i32 0
  store ptr %call19, ptr %co, align 8
  %23 = load ptr, ptr %sendco, align 8
  %done20 = getelementptr inbounds %struct.SendCo, ptr %23, i32 0, i32 5
  store i8 0, ptr %done20, align 1
  %24 = load ptr, ptr %sendco, align 8
  %co21 = getelementptr inbounds %struct.SendCo, ptr %24, i32 0, i32 0
  %25 = load ptr, ptr %co21, align 8
  call void @qemu_coroutine_enter(ptr noundef %25)
  %26 = load ptr, ptr %sendco, align 8
  %done22 = getelementptr inbounds %struct.SendCo, ptr %26, i32 0, i32 5
  %27 = load i8, ptr %done22, align 1
  %tobool23 = trunc i8 %27 to i1
  br i1 %tobool23, label %if.then24, label %if.end25

if.then24:                                        ; preds = %if.then18
  %28 = load ptr, ptr %sendco, align 8
  %ret = getelementptr inbounds %struct.SendCo, ptr %28, i32 0, i32 6
  %29 = load i32, ptr %ret, align 4
  store i32 %29, ptr %retval, align 4
  br label %return

if.end25:                                         ; preds = %if.then18
  br label %if.end26

if.end26:                                         ; preds = %if.end25, %if.end16
  store i32 0, ptr %retval, align 4
  br label %return

return:                                           ; preds = %if.end26, %if.then24, %if.then4
  %30 = load i32, ptr %retval, align 4
  ret i32 %30
}

; Function Attrs: nounwind sspstrong uwtable
define internal zeroext i1 @packet_matches_str(ptr noundef %str, ptr noundef %buf, i32 noundef %packet_len) #0 {
entry:
  %retval = alloca i1, align 1
  %str.addr = alloca ptr, align 8
  %buf.addr = alloca ptr, align 8
  %packet_len.addr = alloca i32, align 4
  store ptr %str, ptr %str.addr, align 8
  store ptr %buf, ptr %buf.addr, align 8
  store i32 %packet_len, ptr %packet_len.addr, align 4
  %0 = load i32, ptr %packet_len.addr, align 4
  %conv = zext i32 %0 to i64
  %1 = load ptr, ptr %str.addr, align 8
  %call = call i64 @strlen(ptr noundef %1) #14
  %cmp = icmp ne i64 %conv, %call
  br i1 %cmp, label %if.then, label %if.end

if.then:                                          ; preds = %entry
  store i1 false, ptr %retval, align 1
  br label %return

if.end:                                           ; preds = %entry
  %2 = load ptr, ptr %str.addr, align 8
  %3 = load ptr, ptr %buf.addr, align 8
  %4 = load i32, ptr %packet_len.addr, align 4
  %conv2 = zext i32 %4 to i64
  %call3 = call i32 @memcmp(ptr noundef %2, ptr noundef %3, i64 noundef %conv2) #14
  %tobool = icmp ne i32 %call3, 0
  %lnot = xor i1 %tobool, true
  store i1 %lnot, ptr %retval, align 1
  br label %return

return:                                           ; preds = %if.end, %if.then
  %5 = load i1, ptr %retval, align 1
  ret i1 %5
}

; Function Attrs: nounwind sspstrong uwtable
define internal void @compare_notify_rs_finalize(ptr noundef %notify_rs) #0 {
entry:
  %notify_rs.addr = alloca ptr, align 8
  %s = alloca ptr, align 8
  %__mptr = alloca ptr, align 8
  %tmp = alloca ptr, align 8
  %msg = alloca [26 x i8], align 16
  %ret = alloca i32, align 4
  store ptr %notify_rs, ptr %notify_rs.addr, align 8
  %0 = load ptr, ptr %notify_rs.addr, align 8
  store ptr %0, ptr %__mptr, align 8
  %1 = load ptr, ptr %__mptr, align 8
  %add.ptr = getelementptr i8, ptr %1, i64 -139624
  store ptr %add.ptr, ptr %tmp, align 8
  %2 = load ptr, ptr %tmp, align 8
  store ptr %2, ptr %s, align 8
  call void @llvm.memcpy.p0.p0.i64(ptr align 16 %msg, ptr align 16 @__const.compare_notify_rs_finalize.msg, i64 26, i1 false)
  %3 = load ptr, ptr %notify_rs.addr, align 8
  %buf = getelementptr inbounds %struct.SocketReadState, ptr %3, i32 0, i32 5
  %arraydecay = getelementptr inbounds [69632 x i8], ptr %buf, i64 0, i64 0
  %4 = load ptr, ptr %notify_rs.addr, align 8
  %packet_len = getelementptr inbounds %struct.SocketReadState, ptr %4, i32 0, i32 3
  %5 = load i32, ptr %packet_len, align 4
  %call = call zeroext i1 @packet_matches_str(ptr noundef @.str.56, ptr noundef %arraydecay, i32 noundef %5)
  br i1 %call, label %if.then, label %if.else

if.then:                                          ; preds = %entry
  %6 = load ptr, ptr %s, align 8
  %arraydecay1 = getelementptr inbounds [26 x i8], ptr %msg, i64 0, i64 0
  %call2 = call i32 @compare_chr_send(ptr noundef %6, ptr noundef %arraydecay1, i32 noundef 25, i32 noundef 0, i1 noundef zeroext true, i1 noundef zeroext false)
  store i32 %call2, ptr %ret, align 4
  %7 = load i32, ptr %ret, align 4
  %cmp = icmp slt i32 %7, 0
  br i1 %cmp, label %if.then3, label %if.end

if.then3:                                         ; preds = %if.then
  call void (ptr, ...) @error_report(ptr noundef @.str.57)
  br label %if.end

if.end:                                           ; preds = %if.then3, %if.then
  br label %if.end11

if.else:                                          ; preds = %entry
  %8 = load ptr, ptr %notify_rs.addr, align 8
  %buf4 = getelementptr inbounds %struct.SocketReadState, ptr %8, i32 0, i32 5
  %arraydecay5 = getelementptr inbounds [69632 x i8], ptr %buf4, i64 0, i64 0
  %9 = load ptr, ptr %notify_rs.addr, align 8
  %packet_len6 = getelementptr inbounds %struct.SocketReadState, ptr %9, i32 0, i32 3
  %10 = load i32, ptr %packet_len6, align 4
  %call7 = call zeroext i1 @packet_matches_str(ptr noundef @.str.58, ptr noundef %arraydecay5, i32 noundef %10)
  br i1 %call7, label %if.then8, label %if.else9

if.then8:                                         ; preds = %if.else
  %11 = load ptr, ptr %s, align 8
  %conn_list = getelementptr inbounds %struct.CompareState, ptr %11, i32 0, i32 17
  %12 = load ptr, ptr %s, align 8
  call void @g_queue_foreach(ptr noundef %conn_list, ptr noundef @colo_flush_packets, ptr noundef %12)
  br label %if.end10

if.else9:                                         ; preds = %if.else
  call void (ptr, ...) @error_report(ptr noundef @.str.59)
  br label %if.end10

if.end10:                                         ; preds = %if.else9, %if.then8
  br label %if.end11

if.end11:                                         ; preds = %if.end10, %if.end
  ret void
}