; Function Attrs: nounwind sspstrong uwtable
define internal void @compare_notify_rs_finalize(ptr noundef %notify_rs) #0 {
entry:
  %add.ptr = getelementptr i8, ptr %notify_rs, i64 -139624
  %buf = getelementptr inbounds nuw i8, ptr %notify_rs, i64 20
  %packet_len = getelementptr inbounds nuw i8, ptr %notify_rs, i64 12
  %0 = load i32, ptr %packet_len, align 4
  %conv.i = zext i32 %0 to i64
  switch i32 %0, label %if.else9 [
    i32 25, label %packet_matches_str.exit
    i32 15, label %packet_matches_str.exit16
  ]

packet_matches_str.exit:                          ; preds = %entry
  %bcmp.i = tail call i32 @bcmp(ptr nonnull @.str.56, ptr nonnull readonly %buf, i64 %conv.i)
  %tobool.not.i = icmp eq i32 %bcmp.i, 0
  br i1 %tobool.not.i, label %if.then, label %if.else9

if.then:                                          ; preds = %packet_matches_str.exit
  %call.i7 = tail call noalias dereferenceable_or_null(16) ptr @g_slice_alloc(i64 noundef 16) #18
  store i32 25, ptr %call.i7, align 8
  %vnet_hdr_len7.i = getelementptr inbounds nuw i8, ptr %call.i7, i64 4
  store i32 0, ptr %vnet_hdr_len7.i, align 4
  %call12.i = tail call noalias dereferenceable_or_null(25) ptr @g_malloc(i64 noundef 25) #18
  tail call void @llvm.memcpy.p0.p0.i64(ptr noundef nonnull align 1 dereferenceable(25) %call12.i, ptr noundef nonnull align 16 dereferenceable(25) @__const.compare_notify_rs_finalize.msg, i64 25, i1 false)
  %1 = getelementptr inbounds nuw i8, ptr %call.i7, i64 8
  store ptr %call12.i, ptr %1, align 8
  %send_list.i = getelementptr i8, ptr %notify_rs, i64 69744
  tail call void @g_queue_push_tail(ptr noundef nonnull %send_list.i, ptr noundef nonnull %call.i7) #16
  %done.i = getelementptr i8, ptr %notify_rs, i64 69769
  %2 = load i8, ptr %done.i, align 1
  %tobool17.i = trunc i8 %2 to i1
  br i1 %tobool17.i, label %if.then18.i, label %if.end11

if.then18.i:                                      ; preds = %if.then
  %sendco.0.i = getelementptr i8, ptr %notify_rs, i64 69720
  %call19.i = tail call ptr @qemu_coroutine_create(ptr noundef nonnull @_compare_chr_send, ptr noundef nonnull %sendco.0.i) #16
  store ptr %call19.i, ptr %sendco.0.i, align 8
  store i8 0, ptr %done.i, align 1
  tail call void @qemu_coroutine_enter(ptr noundef %call19.i) #16
  %3 = load i8, ptr %done.i, align 1
  %tobool23.i = trunc i8 %3 to i1
  br i1 %tobool23.i, label %compare_chr_send.exit, label %if.end11

compare_chr_send.exit:                            ; preds = %if.then18.i
  %ret.i = getelementptr i8, ptr %notify_rs, i64 69772
  %4 = load i32, ptr %ret.i, align 4
  %cmp = icmp slt i32 %4, 0
  br i1 %cmp, label %if.then3, label %if.end11

if.then3:                                         ; preds = %compare_chr_send.exit
  tail call void (ptr, ...) @error_report(ptr noundef nonnull @.str.57) #16
  br label %if.end11

packet_matches_str.exit16:                        ; preds = %entry
  %bcmp.i14 = tail call i32 @bcmp(ptr nonnull @.str.58, ptr nonnull readonly %buf, i64 %conv.i)
  %tobool.not.i15 = icmp eq i32 %bcmp.i14, 0
  br i1 %tobool.not.i15, label %if.then8, label %if.else9

if.then8:                                         ; preds = %packet_matches_str.exit16
  %conn_list = getelementptr i8, ptr %notify_rs, i64 69800
  tail call void @g_queue_foreach(ptr noundef %conn_list, ptr noundef nonnull @colo_flush_packets, ptr noundef %add.ptr) #16
  br label %if.end11

if.else9:                                         ; preds = %packet_matches_str.exit, %entry, %packet_matches_str.exit16
  tail call void (ptr, ...) @error_report(ptr noundef nonnull @.str.59) #16
  br label %if.end11

if.end11:                                         ; preds = %if.then, %if.then18.i, %if.then8, %if.else9, %compare_chr_send.exit, %if.then3
  ret void
}